; Function Attrs: null_pointer_is_valid sspstrong uwtable
define internal fastcc noundef zeroext i1 @dissect_obdii_common_distance_travelled(ptr noundef %0, ptr noundef readonly captures(none) %1, ptr noundef %2, i32 noundef %3) unnamed_addr #0 {
  %5 = getelementptr inbounds nuw i8, ptr %1, i64 14
  %6 = load i8, ptr %5, align 2
  %7 = icmp eq i8 %6, 2
  br i1 %7, label %8, label %25

8:                                                ; preds = %4
  %9 = getelementptr inbounds nuw i8, ptr %1, i64 20
  %10 = load i8, ptr %9, align 4
  %11 = zext i8 %10 to i32
  %12 = shl nuw nsw i32 %11, 8
  %13 = getelementptr inbounds nuw i8, ptr %1, i64 21
  %14 = load i8, ptr %13, align 1
  %15 = zext i8 %14 to i32
  %16 = or disjoint i32 %12, %15
  %17 = load ptr, ptr %1, align 8
  %18 = getelementptr inbounds nuw i8, ptr %17, i64 8
  %19 = load ptr, ptr %18, align 8
  tail call void (ptr, i32, ptr, ...) @col_append_fstr(ptr noundef %19, i32 noundef 25, ptr noundef nonnull @.str.361, i32 noundef %16)
  %20 = getelementptr inbounds nuw i8, ptr %1, i64 16
  %21 = load i32, ptr %20, align 8
  %22 = load i8, ptr %5, align 2
  %23 = zext i8 %22 to i32
  %24 = tail call ptr @proto_tree_add_uint(ptr noundef %2, i32 noundef %3, ptr noundef %0, i32 noundef %21, i32 noundef %23, i32 noundef %16)
  br label %25

25:                                               ; preds = %4, %8
  ret i1 %7
}